; ModuleID = '40/345.c'
source_filename = "40/345.c"
target datalayout = "e-m:e-p270:32:32-p271:32:32-p272:64:64-i64:64-f80:128-n8:16:32:64-S128"
target triple = "x86_64-pc-linux-gnu"

@.str = private unnamed_addr constant [13 x i8] c"%lf%lf%lf%lf\00", align 1
@.str.1 = private unnamed_addr constant [4 x i8] c"%lf\00", align 1
@.str.2 = private unnamed_addr constant [6 x i8] c"%.4lf\00", align 1
@.str.3 = private unnamed_addr constant [15 x i8] c"Invalid input\0A\00", align 1

; Function Attrs: noinline nounwind uwtable
define dso_local i32 @main(i32 %0, i8** %1) #0 {
  %3 = alloca i32, align 4
  %4 = alloca i32, align 4
  %5 = alloca i8**, align 8
  %6 = alloca double, align 8
  %7 = alloca double, align 8
  %8 = alloca double, align 8
  %9 = alloca double, align 8
  %10 = alloca double, align 8
  %11 = alloca double, align 8
  %12 = alloca double, align 8
  %13 = alloca double, align 8
  %14 = alloca double, align 8
  store i32 0, i32* %3, align 4
  store i32 %0, i32* %4, align 4
  store i8** %1, i8*** %5, align 8
  %15 = call i32 (i8*, ...) @__isoc99_scanf(i8* getelementptr inbounds ([13 x i8], [13 x i8]* @.str, i64 0, i64 0), double* %6, double* %7, double* %8, double* %9)
  %16 = call i32 (i8*, ...) @__isoc99_scanf(i8* getelementptr inbounds ([4 x i8], [4 x i8]* @.str.1, i64 0, i64 0), double* %14)
  %17 = load double, double* %6, align 8
  %18 = load double, double* %7, align 8
  %19 = fadd double %17, %18
  %20 = load double, double* %8, align 8
  %21 = fadd double %19, %20
  %22 = load double, double* %9, align 8
  %23 = fadd double %21, %22
  %24 = fdiv double %23, 2.000000e+00
  store double %24, double* %11, align 8
  %25 = load double, double* %14, align 8
  %26 = fdiv double %25, 3.600000e+02
  %27 = fmul double %26, 1.000000e+02
  store double %27, double* %12, align 8
  %28 = load double, double* %11, align 8
  %29 = load double, double* %6, align 8
  %30 = fsub double %28, %29
  %31 = load double, double* %11, align 8
  %32 = load double, double* %7, align 8
  %33 = fsub double %31, %32
  %34 = fmul double %30, %33
  %35 = load double, double* %11, align 8
  %36 = load double, double* %8, align 8
  %37 = fsub double %35, %36
  %38 = fmul double %34, %37
  %39 = load double, double* %11, align 8
  %40 = load double, double* %9, align 8
  %41 = fsub double %39, %40
  %42 = fmul double %38, %41
  %43 = load double, double* %6, align 8
  %44 = load double, double* %7, align 8
  %45 = fmul double %43, %44
  %46 = load double, double* %8, align 8
  %47 = fmul double %45, %46
  %48 = load double, double* %9, align 8
  %49 = fmul double %47, %48
  %50 = load double, double* %12, align 8
  %51 = call double @cos(double %50) #3
  %52 = fmul double %49, %51
  %53 = load double, double* %12, align 8
  %54 = call double @cos(double %53) #3
  %55 = fmul double %52, %54
  %56 = fsub double %42, %55
  store double %56, double* %10, align 8
  %57 = load double, double* %10, align 8
  %58 = fcmp oge double %57, 0.000000e+00
  br i1 %58, label %59, label %64

59:                                               ; preds = %2
  %60 = load double, double* %10, align 8
  %61 = call double @sqrt(double %60) #3
  store double %61, double* %13, align 8
  %62 = load double, double* %13, align 8
  %63 = call i32 (i8*, ...) @printf(i8* getelementptr inbounds ([6 x i8], [6 x i8]* @.str.2, i64 0, i64 0), double %62)
  br label %66

64:                                               ; preds = %2
  %65 = call i32 (i8*, ...) @printf(i8* getelementptr inbounds ([15 x i8], [15 x i8]* @.str.3, i64 0, i64 0))
  br label %66

66:                                               ; preds = %64, %59
  ret i32 0
}

declare dso_local i32 @__isoc99_scanf(i8*, ...) #1

; Function Attrs: nounwind
declare dso_local double @cos(double) #2

; Function Attrs: nounwind
declare dso_local double @sqrt(double) #2

declare dso_local i32 @printf(i8*, ...) #1


!llvm.module.flags = !{!0}
!llvm.ident = !{!1}

!0 = !{i32 1, !"wchar_size", i32 4}
!1 = !{!"clang version 10.0.0-4ubuntu1 "}
